; ModuleID = '57/3137.c'
source_filename = "57/3137.c"
target datalayout = "e-m:e-p270:32:32-p271:32:32-p272:64:64-i64:64-f80:128-n8:16:32:64-S128"
target triple = "x86_64-pc-linux-gnu"

@.str = private unnamed_addr constant [3 x i8] c"%d\00", align 1
@.str.1 = private unnamed_addr constant [3 x i8] c"%s\00", align 1
@.str.2 = private unnamed_addr constant [4 x i8] c"%s\0A\00", align 1

; Function Attrs: noinline nounwind uwtable
define dso_local i32 @main() #0 {
  %1 = alloca i32, align 4
  %2 = alloca [50 x [50 x i8]], align 16
  %3 = alloca i32, align 4
  %4 = alloca i32, align 4
  %5 = alloca i32, align 4
  store i32 0, i32* %1, align 4
  %6 = call i32 (i8*, ...) @__isoc99_scanf(i8* getelementptr inbounds ([3 x i8], [3 x i8]* @.str, i64 0, i64 0), i32* %3)
  store i32 1, i32* %4, align 4
  br label %7

7:                                                ; preds = %18, %0
  %8 = load i32, i32* %4, align 4
  %9 = load i32, i32* %3, align 4
  %10 = icmp sle i32 %8, %9
  br i1 %10, label %11, label %21

11:                                               ; preds = %7
  %12 = load i32, i32* %4, align 4
  %13 = sub nsw i32 %12, 1
  %14 = sext i32 %13 to i64
  %15 = getelementptr inbounds [50 x [50 x i8]], [50 x [50 x i8]]* %2, i64 0, i64 %14
  %16 = getelementptr inbounds [50 x i8], [50 x i8]* %15, i64 0, i64 0
  %17 = call i32 (i8*, ...) @__isoc99_scanf(i8* getelementptr inbounds ([3 x i8], [3 x i8]* @.str.1, i64 0, i64 0), i8* %16)
  br label %18

18:                                               ; preds = %11
  %19 = load i32, i32* %4, align 4
  %20 = add nsw i32 %19, 1
  store i32 %20, i32* %4, align 4
  br label %7

21:                                               ; preds = %7
  store i32 1, i32* %4, align 4
  br label %22

22:                                               ; preds = %147, %21
  %23 = load i32, i32* %4, align 4
  %24 = load i32, i32* %3, align 4
  %25 = icmp sle i32 %23, %24
  br i1 %25, label %26, label %150

26:                                               ; preds = %22
  %27 = load i32, i32* %4, align 4
  %28 = sub nsw i32 %27, 1
  %29 = sext i32 %28 to i64
  %30 = getelementptr inbounds [50 x [50 x i8]], [50 x [50 x i8]]* %2, i64 0, i64 %29
  %31 = getelementptr inbounds [50 x i8], [50 x i8]* %30, i64 0, i64 0
  %32 = call i64 @strlen(i8* %31) #3
  %33 = trunc i64 %32 to i32
  store i32 %33, i32* %5, align 4
  %34 = load i32, i32* %4, align 4
  %35 = sub nsw i32 %34, 1
  %36 = sext i32 %35 to i64
  %37 = getelementptr inbounds [50 x [50 x i8]], [50 x [50 x i8]]* %2, i64 0, i64 %36
  %38 = load i32, i32* %5, align 4
  %39 = sub nsw i32 %38, 1
  %40 = sext i32 %39 to i64
  %41 = getelementptr inbounds [50 x i8], [50 x i8]* %37, i64 0, i64 %40
  %42 = load i8, i8* %41, align 1
  %43 = sext i8 %42 to i32
  %44 = icmp eq i32 %43, 114
  br i1 %44, label %45, label %66

45:                                               ; preds = %26
  %46 = load i32, i32* %4, align 4
  %47 = sub nsw i32 %46, 1
  %48 = sext i32 %47 to i64
  %49 = getelementptr inbounds [50 x [50 x i8]], [50 x [50 x i8]]* %2, i64 0, i64 %48
  %50 = load i32, i32* %5, align 4
  %51 = sub nsw i32 %50, 2
  %52 = sext i32 %51 to i64
  %53 = getelementptr inbounds [50 x i8], [50 x i8]* %49, i64 0, i64 %52
  %54 = load i8, i8* %53, align 1
  %55 = sext i8 %54 to i32
  %56 = icmp eq i32 %55, 101
  br i1 %56, label %57, label %66

57:                                               ; preds = %45
  %58 = load i32, i32* %4, align 4
  %59 = sub nsw i32 %58, 1
  %60 = sext i32 %59 to i64
  %61 = getelementptr inbounds [50 x [50 x i8]], [50 x [50 x i8]]* %2, i64 0, i64 %60
  %62 = load i32, i32* %5, align 4
  %63 = sub nsw i32 %62, 2
  %64 = sext i32 %63 to i64
  %65 = getelementptr inbounds [50 x i8], [50 x i8]* %61, i64 0, i64 %64
  store i8 0, i8* %65, align 1
  br label %146

66:                                               ; preds = %45, %26
  %67 = load i32, i32* %4, align 4
  %68 = sub nsw i32 %67, 1
  %69 = sext i32 %68 to i64
  %70 = getelementptr inbounds [50 x [50 x i8]], [50 x [50 x i8]]* %2, i64 0, i64 %69
  %71 = load i32, i32* %5, align 4
  %72 = sub nsw i32 %71, 1
  %73 = sext i32 %72 to i64
  %74 = getelementptr inbounds [50 x i8], [50 x i8]* %70, i64 0, i64 %73
  %75 = load i8, i8* %74, align 1
  %76 = sext i8 %75 to i32
  %77 = icmp eq i32 %76, 121
  br i1 %77, label %78, label %99

78:                                               ; preds = %66
  %79 = load i32, i32* %4, align 4
  %80 = sub nsw i32 %79, 1
  %81 = sext i32 %80 to i64
  %82 = getelementptr inbounds [50 x [50 x i8]], [50 x [50 x i8]]* %2, i64 0, i64 %81
  %83 = load i32, i32* %5, align 4
  %84 = sub nsw i32 %83, 2
  %85 = sext i32 %84 to i64
  %86 = getelementptr inbounds [50 x i8], [50 x i8]* %82, i64 0, i64 %85
  %87 = load i8, i8* %86, align 1
  %88 = sext i8 %87 to i32
  %89 = icmp eq i32 %88, 108
  br i1 %89, label %90, label %99

90:                                               ; preds = %78
  %91 = load i32, i32* %4, align 4
  %92 = sub nsw i32 %91, 1
  %93 = sext i32 %92 to i64
  %94 = getelementptr inbounds [50 x [50 x i8]], [50 x [50 x i8]]* %2, i64 0, i64 %93
  %95 = load i32, i32* %5, align 4
  %96 = sub nsw i32 %95, 2
  %97 = sext i32 %96 to i64
  %98 = getelementptr inbounds [50 x i8], [50 x i8]* %94, i64 0, i64 %97
  store i8 0, i8* %98, align 1
  br label %145

99:                                               ; preds = %78, %66
  %100 = load i32, i32* %4, align 4
  %101 = sub nsw i32 %100, 1
  %102 = sext i32 %101 to i64
  %103 = getelementptr inbounds [50 x [50 x i8]], [50 x [50 x i8]]* %2, i64 0, i64 %102
  %104 = load i32, i32* %5, align 4
  %105 = sub nsw i32 %104, 1
  %106 = sext i32 %105 to i64
  %107 = getelementptr inbounds [50 x i8], [50 x i8]* %103, i64 0, i64 %106
  %108 = load i8, i8* %107, align 1
  %109 = sext i8 %108 to i32
  %110 = icmp eq i32 %109, 103
  br i1 %110, label %111, label %144

111:                                              ; preds = %99
  %112 = load i32, i32* %4, align 4
  %113 = sub nsw i32 %112, 1
  %114 = sext i32 %113 to i64
  %115 = getelementptr inbounds [50 x [50 x i8]], [50 x [50 x i8]]* %2, i64 0, i64 %114
  %116 = load i32, i32* %5, align 4
  %117 = sub nsw i32 %116, 2
  %118 = sext i32 %117 to i64
  %119 = getelementptr inbounds [50 x i8], [50 x i8]* %115, i64 0, i64 %118
  %120 = load i8, i8* %119, align 1
  %121 = sext i8 %120 to i32
  %122 = icmp eq i32 %121, 110
  br i1 %122, label %123, label %144

123:                                              ; preds = %111
  %124 = load i32, i32* %4, align 4
  %125 = sub nsw i32 %124, 1
  %126 = sext i32 %125 to i64
  %127 = getelementptr inbounds [50 x [50 x i8]], [50 x [50 x i8]]* %2, i64 0, i64 %126
  %128 = load i32, i32* %5, align 4
  %129 = sub nsw i32 %128, 3
  %130 = sext i32 %129 to i64
  %131 = getelementptr inbounds [50 x i8], [50 x i8]* %127, i64 0, i64 %130
  %132 = load i8, i8* %131, align 1
  %133 = sext i8 %132 to i32
  %134 = icmp eq i32 %133, 105
  br i1 %134, label %135, label %144

135:                                              ; preds = %123
  %136 = load i32, i32* %4, align 4
  %137 = sub nsw i32 %136, 1
  %138 = sext i32 %137 to i64
  %139 = getelementptr inbounds [50 x [50 x i8]], [50 x [50 x i8]]* %2, i64 0, i64 %138
  %140 = load i32, i32* %5, align 4
  %141 = sub nsw i32 %140, 3
  %142 = sext i32 %141 to i64
  %143 = getelementptr inbounds [50 x i8], [50 x i8]* %139, i64 0, i64 %142
  store i8 0, i8* %143, align 1
  br label %144

144:                                              ; preds = %135, %123, %111, %99
  br label %145

145:                                              ; preds = %144, %90
  br label %146

146:                                              ; preds = %145, %57
  br label %147

147:                                              ; preds = %146
  %148 = load i32, i32* %4, align 4
  %149 = add nsw i32 %148, 1
  store i32 %149, i32* %4, align 4
  br label %22

150:                                              ; preds = %22
  store i32 1, i32* %4, align 4
  br label %151

151:                                              ; preds = %162, %150
  %152 = load i32, i32* %4, align 4
  %153 = load i32, i32* %3, align 4
  %154 = icmp sle i32 %152, %153
  br i1 %154, label %155, label %165

155:                                              ; preds = %151
  %156 = load i32, i32* %4, align 4
  %157 = sub nsw i32 %156, 1
  %158 = sext i32 %157 to i64
  %159 = getelementptr inbounds [50 x [50 x i8]], [50 x [50 x i8]]* %2, i64 0, i64 %158
  %160 = getelementptr inbounds [50 x i8], [50 x i8]* %159, i64 0, i64 0
  %161 = call i32 (i8*, ...) @printf(i8* getelementptr inbounds ([4 x i8], [4 x i8]* @.str.2, i64 0, i64 0), i8* %160)
  br label %162

162:                                              ; preds = %155
  %163 = load i32, i32* %4, align 4
  %164 = add nsw i32 %163, 1
  store i32 %164, i32* %4, align 4
  br label %151

165:                                              ; preds = %151
  ret i32 0
}

declare dso_local i32 @__isoc99_scanf(i8*, ...) #1

; Function Attrs: nounwind readonly
declare dso_local i64 @strlen(i8*) #2

declare dso_local i32 @printf(i8*, ...) #1


!llvm.module.flags = !{!0}
!llvm.ident = !{!1}

!0 = !{i32 1, !"wchar_size", i32 4}
!1 = !{!"clang version 10.0.0-4ubuntu1 "}
